target datalayout = "e-m:e-p270:32:32-p271:32:32-p272:64:64-i64:64-i128:128-f80:128-n8:16:32:64-S128"
target triple = "x86_64-pc-linux-gnu"

%"class.absl::time_internal::cctz::TimeZoneInfo" = type { %"class.absl::time_internal::cctz::TimeZoneIf", %"class.std::vector", %"class.std::vector.0", i8, %"class.std::__cxx11::basic_string", %"class.std::__cxx11::basic_string", %"class.std::__cxx11::basic_string", i8, i64, %"struct.std::atomic", %"struct.std::atomic" }
%"class.absl::time_internal::cctz::TimeZoneIf" = type { ptr }
%"class.std::vector" = type { %"struct.std::_Vector_base" }
%"struct.std::_Vector_base" = type { %"struct.std::_Vector_base<absl::time_internal::cctz::Transition, std::allocator<absl::time_internal::cctz::Transition>>::_Vector_impl" }
%"struct.std::_Vector_base<absl::time_internal::cctz::Transition, std::allocator<absl::time_internal::cctz::Transition>>::_Vector_impl" = type { %"struct.std::_Vector_base<absl::time_internal::cctz::Transition, std::allocator<absl::time_internal::cctz::Transition>>::_Vector_impl_data" }
%"struct.std::_Vector_base<absl::time_internal::cctz::Transition, std::allocator<absl::time_internal::cctz::Transition>>::_Vector_impl_data" = type { ptr, ptr, ptr }
%"class.std::vector.0" = type { %"struct.std::_Vector_base.1" }
%"struct.std::_Vector_base.1" = type { %"struct.std::_Vector_base<absl::time_internal::cctz::TransitionType, std::allocator<absl::time_internal::cctz::TransitionType>>::_Vector_impl" }
%"struct.std::_Vector_base<absl::time_internal::cctz::TransitionType, std::allocator<absl::time_internal::cctz::TransitionType>>::_Vector_impl" = type { %"struct.std::_Vector_base<absl::time_internal::cctz::TransitionType, std::allocator<absl::time_internal::cctz::TransitionType>>::_Vector_impl_data" }
%"struct.std::_Vector_base<absl::time_internal::cctz::TransitionType, std::allocator<absl::time_internal::cctz::TransitionType>>::_Vector_impl_data" = type { ptr, ptr, ptr }
%"class.std::__cxx11::basic_string" = type { %"struct.std::__cxx11::basic_string<char>::_Alloc_hider", i64, %union.anon }
%"struct.std::__cxx11::basic_string<char>::_Alloc_hider" = type { ptr }
%union.anon = type { i64, [8 x i8] }
%"struct.std::atomic" = type { %"struct.std::__atomic_base" }
%"struct.std::__atomic_base" = type { i64 }
%"struct.absl::time_internal::cctz::TransitionType" = type <{ i32, [4 x i8], %"class.absl::time_internal::cctz::detail::civil_time", %"class.absl::time_internal::cctz::detail::civil_time", i8, i8, [6 x i8] }>
%"class.absl::time_internal::cctz::detail::civil_time" = type { %"struct.absl::time_internal::cctz::detail::fields" }
%"struct.absl::time_internal::cctz::detail::fields" = type <{ i64, i8, i8, i8, i8, i8, [3 x i8] }>
%"struct.absl::time_internal::cctz::time_zone::absolute_lookup" = type { %"class.absl::time_internal::cctz::detail::civil_time", i32, i8, ptr }

; Function Attrs: mustprogress nounwind uwtable
define linkonce_odr dso_local { i64, i64 } @_ZN4absl13time_internal4cctz6detail5alignENS2_10second_tagENS2_6fieldsE(i64 %0, i64 %1) #2 comdat {
  %3 = alloca %"struct.absl::time_internal::cctz::detail::fields", align 8
  %4 = alloca %"struct.absl::time_internal::cctz::detail::fields", align 8
  %5 = getelementptr inbounds nuw { i64, i64 }, ptr %4, i32 0, i32 0
  store i64 %0, ptr %5, align 8
  %6 = getelementptr inbounds nuw { i64, i64 }, ptr %4, i32 0, i32 1
  store i64 %1, ptr %6, align 8
  call void @llvm.memcpy.p0.p0.i64(ptr align 8 %3, ptr align 8 %4, i64 16, i1 false), !tbaa.struct !73
  %7 = load { i64, i64 }, ptr %3, align 8
  ret { i64, i64 } %7
}

; Function Attrs: mustprogress nounwind uwtable
define available_externally noundef ptr @_ZNKSt7__cxx1112basic_stringIcSt11char_traitsIcESaIcEE7_M_dataEv(ptr noundef nonnull align 8 dereferenceable(32) %0) #2 align 2 {
  %2 = alloca ptr, align 8
  store ptr %0, ptr %2, align 8, !tbaa !13
  %3 = load ptr, ptr %2, align 8
  %4 = getelementptr inbounds nuw %"class.std::__cxx11::basic_string", ptr %3, i32 0, i32 0
  %5 = getelementptr inbounds nuw %"struct.std::__cxx11::basic_string<char>::_Alloc_hider", ptr %4, i32 0, i32 0
  %6 = load ptr, ptr %5, align 8, !tbaa !214
  ret ptr %6
}

; Function Attrs: mustprogress nounwind uwtable
define linkonce_odr dso_local void @_ZN4absl13time_internal4cctz6detail10civil_timeINS2_10second_tagEEC2ENS2_6fieldsE(ptr noundef nonnull align 8 dereferenceable(16) %0, i64 %1, i64 %2) unnamed_addr #2 comdat align 2 {
  %4 = alloca %"struct.absl::time_internal::cctz::detail::fields", align 8
  %5 = alloca ptr, align 8
  %6 = alloca %"struct.absl::time_internal::cctz::detail::fields", align 8
  %7 = alloca { i64, i64 }, align 8
  %8 = getelementptr inbounds nuw { i64, i64 }, ptr %4, i32 0, i32 0
  store i64 %1, ptr %8, align 8
  %9 = getelementptr inbounds nuw { i64, i64 }, ptr %4, i32 0, i32 1
  store i64 %2, ptr %9, align 8
  store ptr %0, ptr %5, align 8, !tbaa !91
  %10 = load ptr, ptr %5, align 8
  call void @llvm.memcpy.p0.p0.i64(ptr align 8 %6, ptr align 8 %4, i64 16, i1 false), !tbaa.struct !73
  %11 = getelementptr inbounds nuw { i64, i64 }, ptr %6, i32 0, i32 0
  %12 = load i64, ptr %11, align 8
  %13 = getelementptr inbounds nuw { i64, i64 }, ptr %6, i32 0, i32 1
  %14 = load i64, ptr %13, align 8
  %15 = call { i64, i64 } @_ZN4absl13time_internal4cctz6detail5alignENS2_10second_tagENS2_6fieldsE(i64 %12, i64 %14) #17
  store { i64, i64 } %15, ptr %7, align 8
  call void @llvm.memcpy.p0.p0.i64(ptr align 8 %10, ptr align 8 %7, i64 13, i1 false)
  ret void
}

; Function Attrs: mustprogress nounwind uwtable
define linkonce_odr dso_local { i64, i64 } @_ZN4absl13time_internal4cctz6detail4stepENS2_10second_tagENS2_6fieldsEl(i64 %0, i64 %1, i64 noundef %2) #2 comdat {
  %4 = alloca %"struct.absl::time_internal::cctz::detail::fields", align 8
  %5 = alloca %"struct.absl::time_internal::cctz::detail::fields", align 8
  %6 = alloca i64, align 8
  %7 = alloca { i64, i64 }, align 8
  %8 = getelementptr inbounds nuw { i64, i64 }, ptr %5, i32 0, i32 0
  store i64 %0, ptr %8, align 8
  %9 = getelementptr inbounds nuw { i64, i64 }, ptr %5, i32 0, i32 1
  store i64 %1, ptr %9, align 8
  store i64 %2, ptr %6, align 8, !tbaa !9
  %10 = getelementptr inbounds nuw %"struct.absl::time_internal::cctz::detail::fields", ptr %5, i32 0, i32 0
  %11 = load i64, ptr %10, align 8, !tbaa !217
  %12 = getelementptr inbounds nuw %"struct.absl::time_internal::cctz::detail::fields", ptr %5, i32 0, i32 1
  %13 = load i8, ptr %12, align 8, !tbaa !218
  %14 = sext i8 %13 to i64
  %15 = getelementptr inbounds nuw %"struct.absl::time_internal::cctz::detail::fields", ptr %5, i32 0, i32 2
  %16 = load i8, ptr %15, align 1, !tbaa !219
  %17 = sext i8 %16 to i64
  %18 = getelementptr inbounds nuw %"struct.absl::time_internal::cctz::detail::fields", ptr %5, i32 0, i32 3
  %19 = load i8, ptr %18, align 2, !tbaa !220
  %20 = sext i8 %19 to i64
  %21 = getelementptr inbounds nuw %"struct.absl::time_internal::cctz::detail::fields", ptr %5, i32 0, i32 4
  %22 = load i8, ptr %21, align 1, !tbaa !221
  %23 = sext i8 %22 to i64
  %24 = load i64, ptr %6, align 8, !tbaa !9
  %25 = sdiv i64 %24, 60
  %26 = add nsw i64 %23, %25
  %27 = getelementptr inbounds nuw %"struct.absl::time_internal::cctz::detail::fields", ptr %5, i32 0, i32 5
  %28 = load i8, ptr %27, align 4, !tbaa !222
  %29 = sext i8 %28 to i64
  %30 = load i64, ptr %6, align 8, !tbaa !9
  %31 = srem i64 %30, 60
  %32 = add nsw i64 %29, %31
  %33 = call { i64, i64 } @_ZN4absl13time_internal4cctz6detail4impl5n_secEllllll(i64 noundef %11, i64 noundef %14, i64 noundef %17, i64 noundef %20, i64 noundef %26, i64 noundef %32) #17
  store { i64, i64 } %33, ptr %7, align 8
  call void @llvm.memcpy.p0.p0.i64(ptr align 8 %4, ptr align 8 %7, i64 13, i1 false)
  %34 = load { i64, i64 }, ptr %4, align 8
  ret { i64, i64 } %34
}

; Function Attrs: noinline noreturn nounwind uwtable
define linkonce_odr hidden void @__clang_call_terminate(ptr noundef %0) #11 comdat {
  %2 = call ptr @__cxa_begin_catch(ptr %0) #17
  call void @_ZSt9terminatev() #19
  unreachable
}

; Function Attrs: mustprogress nounwind uwtable
define linkonce_odr dso_local void @_ZN4absl13time_internal4cctz6detail6fieldsC2Elaaaaa(ptr noundef nonnull align 8 dereferenceable(13) %0, i64 noundef %1, i8 noundef signext %2, i8 noundef signext %3, i8 noundef signext %4, i8 noundef signext %5, i8 noundef signext %6) unnamed_addr #2 comdat align 2 {
  %8 = alloca ptr, align 8
  %9 = alloca i64, align 8
  %10 = alloca i8, align 1
  %11 = alloca i8, align 1
  %12 = alloca i8, align 1
  %13 = alloca i8, align 1
  %14 = alloca i8, align 1
  store ptr %0, ptr %8, align 8, !tbaa !215
  store i64 %1, ptr %9, align 8, !tbaa !9
  store i8 %2, ptr %10, align 1, !tbaa !30
  store i8 %3, ptr %11, align 1, !tbaa !30
  store i8 %4, ptr %12, align 1, !tbaa !30
  store i8 %5, ptr %13, align 1, !tbaa !30
  store i8 %6, ptr %14, align 1, !tbaa !30
  %15 = load ptr, ptr %8, align 8
  %16 = getelementptr inbounds nuw %"struct.absl::time_internal::cctz::detail::fields", ptr %15, i32 0, i32 0
  %17 = load i64, ptr %9, align 8, !tbaa !9
  store i64 %17, ptr %16, align 8, !tbaa !217
  %18 = getelementptr inbounds nuw %"struct.absl::time_internal::cctz::detail::fields", ptr %15, i32 0, i32 1
  %19 = load i8, ptr %10, align 1, !tbaa !30
  store i8 %19, ptr %18, align 8, !tbaa !218
  %20 = getelementptr inbounds nuw %"struct.absl::time_internal::cctz::detail::fields", ptr %15, i32 0, i32 2
  %21 = load i8, ptr %11, align 1, !tbaa !30
  store i8 %21, ptr %20, align 1, !tbaa !219
  %22 = getelementptr inbounds nuw %"struct.absl::time_internal::cctz::detail::fields", ptr %15, i32 0, i32 3
  %23 = load i8, ptr %12, align 1, !tbaa !30
  store i8 %23, ptr %22, align 2, !tbaa !220
  %24 = getelementptr inbounds nuw %"struct.absl::time_internal::cctz::detail::fields", ptr %15, i32 0, i32 4
  %25 = load i8, ptr %13, align 1, !tbaa !30
  store i8 %25, ptr %24, align 1, !tbaa !221
  %26 = getelementptr inbounds nuw %"struct.absl::time_internal::cctz::detail::fields", ptr %15, i32 0, i32 5
  %27 = load i8, ptr %14, align 1, !tbaa !30
  store i8 %27, ptr %26, align 4, !tbaa !222
  ret void
}

; Function Attrs: mustprogress nounwind uwtable
define available_externally noundef nonnull align 1 dereferenceable(1) ptr @_ZNKSt7__cxx1112basic_stringIcSt11char_traitsIcESaIcEEixEm(ptr noundef nonnull align 8 dereferenceable(32) %0, i64 noundef %1) #2 align 2 {
  %3 = alloca ptr, align 8
  %4 = alloca i64, align 8
  store ptr %0, ptr %3, align 8, !tbaa !13
  store i64 %1, ptr %4, align 8, !tbaa !9
  %5 = load ptr, ptr %3, align 8
  br label %6

6:                                                ; preds = %2
  br label %7

7:                                                ; preds = %6
  br label %8

8:                                                ; preds = %7
  %9 = call noundef ptr @_ZNKSt7__cxx1112basic_stringIcSt11char_traitsIcESaIcEE7_M_dataEv(ptr noundef nonnull align 8 dereferenceable(32) %5)
  %10 = load i64, ptr %4, align 8, !tbaa !9
  %11 = getelementptr inbounds nuw i8, ptr %9, i64 %10
  ret ptr %11
}

; Function Attrs: mustprogress nounwind uwtable
define linkonce_odr dso_local { i64, i64 } @_ZN4absl13time_internal4cctz6detailplENS2_10civil_timeINS2_10second_tagEEEl(i64 %0, i64 %1, i64 noundef %2) #2 comdat {
  %4 = alloca %"class.absl::time_internal::cctz::detail::civil_time", align 8
  %5 = alloca %"class.absl::time_internal::cctz::detail::civil_time", align 8
  %6 = alloca i64, align 8
  %7 = alloca %"struct.absl::time_internal::cctz::detail::fields", align 8
  %8 = alloca %"struct.absl::time_internal::cctz::detail::fields", align 8
  %9 = alloca { i64, i64 }, align 8
  %10 = getelementptr inbounds nuw { i64, i64 }, ptr %5, i32 0, i32 0
  store i64 %0, ptr %10, align 8
  %11 = getelementptr inbounds nuw { i64, i64 }, ptr %5, i32 0, i32 1
  store i64 %1, ptr %11, align 8
  store i64 %2, ptr %6, align 8, !tbaa !9
  %12 = getelementptr inbounds nuw %"class.absl::time_internal::cctz::detail::civil_time", ptr %5, i32 0, i32 0
  call void @llvm.memcpy.p0.p0.i64(ptr align 8 %8, ptr align 8 %12, i64 16, i1 false), !tbaa.struct !73
  %13 = load i64, ptr %6, align 8, !tbaa !9
  %14 = getelementptr inbounds nuw { i64, i64 }, ptr %8, i32 0, i32 0
  %15 = load i64, ptr %14, align 8
  %16 = getelementptr inbounds nuw { i64, i64 }, ptr %8, i32 0, i32 1
  %17 = load i64, ptr %16, align 8
  %18 = call { i64, i64 } @_ZN4absl13time_internal4cctz6detail4stepENS2_10second_tagENS2_6fieldsEl(i64 %15, i64 %17, i64 noundef %13) #17
  store { i64, i64 } %18, ptr %9, align 8
  call void @llvm.memcpy.p0.p0.i64(ptr align 8 %7, ptr align 8 %9, i64 13, i1 false)
  %19 = getelementptr inbounds nuw { i64, i64 }, ptr %7, i32 0, i32 0
  %20 = load i64, ptr %19, align 8
  %21 = getelementptr inbounds nuw { i64, i64 }, ptr %7, i32 0, i32 1
  %22 = load i64, ptr %21, align 8
  call void @_ZN4absl13time_internal4cctz6detail10civil_timeINS2_10second_tagEEC2ENS2_6fieldsE(ptr noundef nonnull align 8 dereferenceable(16) %4, i64 %20, i64 %22) #17
  %23 = getelementptr inbounds nuw %"class.absl::time_internal::cctz::detail::civil_time", ptr %4, i32 0, i32 0
  %24 = load { i64, i64 }, ptr %23, align 8
  ret { i64, i64 } %24
}

; Function Attrs: mustprogress nounwind uwtable
define linkonce_odr dso_local void @_ZN4absl13time_internal4cctz6detail10civil_timeINS2_10second_tagEEC2Ev(ptr noundef nonnull align 8 dereferenceable(16) %0) unnamed_addr #2 comdat align 2 personality ptr @__gxx_personality_v0 {
  %2 = alloca ptr, align 8
  store ptr %0, ptr %2, align 8, !tbaa !91
  %3 = load ptr, ptr %2, align 8
  %4 = getelementptr inbounds nuw %"class.absl::time_internal::cctz::detail::civil_time", ptr %3, i32 0, i32 0
  invoke void @_ZN4absl13time_internal4cctz6detail6fieldsC2Elaaaaa(ptr noundef nonnull align 8 dereferenceable(13) %4, i64 noundef 1970, i8 noundef signext 1, i8 noundef signext 1, i8 noundef signext 0, i8 noundef signext 0, i8 noundef signext 0)
          to label %5 unwind label %6

5:                                                ; preds = %1
  ret void

6:                                                ; preds = %1
  %7 = landingpad { ptr, i32 }
          catch ptr null
  %8 = extractvalue { ptr, i32 } %7, 0
  call void @__clang_call_terminate(ptr %8) #19
  unreachable
}

; Function Attrs: mustprogress nounwind uwtable
define dso_local void @_ZNK4absl13time_internal4cctz12TimeZoneInfo9LocalTimeElRKNS1_14TransitionTypeE(ptr dead_on_unwind noalias writable sret(%"struct.absl::time_internal::cctz::time_zone::absolute_lookup") align 8 %0, ptr noundef nonnull align 8 dereferenceable(192) %1, i64 noundef %2, ptr noundef nonnull align 8 dereferenceable(42) %3) #2 align 2 {
  %5 = alloca ptr, align 8
  %6 = alloca i64, align 8
  %7 = alloca ptr, align 8
  %8 = alloca %"class.absl::time_internal::cctz::detail::civil_time", align 8
  %9 = alloca %"class.absl::time_internal::cctz::detail::civil_time", align 8
  store ptr %1, ptr %5, align 8, !tbaa !4
  store i64 %2, ptr %6, align 8, !tbaa !9
  store ptr %3, ptr %7, align 8, !tbaa !17
  %10 = load ptr, ptr %5, align 8
  call void @_ZN4absl13time_internal4cctz6detail10civil_timeINS2_10second_tagEEC2Ev(ptr noundef nonnull align 8 dereferenceable(16) %9) #17
  %11 = load i64, ptr %6, align 8, !tbaa !9
  %12 = getelementptr inbounds nuw { i64, i64 }, ptr %9, i32 0, i32 0
  %13 = load i64, ptr %12, align 8
  %14 = getelementptr inbounds nuw { i64, i64 }, ptr %9, i32 0, i32 1
  %15 = load i64, ptr %14, align 8
  %16 = call { i64, i64 } @_ZN4absl13time_internal4cctz6detailplENS2_10civil_timeINS2_10second_tagEEEl(i64 %13, i64 %15, i64 noundef %11) #17
  %17 = getelementptr inbounds nuw %"class.absl::time_internal::cctz::detail::civil_time", ptr %8, i32 0, i32 0
  %18 = getelementptr inbounds nuw { i64, i64 }, ptr %17, i32 0, i32 0
  %19 = extractvalue { i64, i64 } %16, 0
  store i64 %19, ptr %18, align 8
  %20 = getelementptr inbounds nuw { i64, i64 }, ptr %17, i32 0, i32 1
  %21 = extractvalue { i64, i64 } %16, 1
  store i64 %21, ptr %20, align 8
  %22 = load ptr, ptr %7, align 8, !tbaa !17
  %23 = getelementptr inbounds nuw %"struct.absl::time_internal::cctz::TransitionType", ptr %22, i32 0, i32 0
  %24 = load i32, ptr %23, align 8, !tbaa !24
  %25 = sext i32 %24 to i64
  %26 = getelementptr inbounds nuw { i64, i64 }, ptr %8, i32 0, i32 0
  %27 = load i64, ptr %26, align 8
  %28 = getelementptr inbounds nuw { i64, i64 }, ptr %8, i32 0, i32 1
  %29 = load i64, ptr %28, align 8
  %30 = call { i64, i64 } @_ZN4absl13time_internal4cctz6detailplENS2_10civil_timeINS2_10second_tagEEEl(i64 %27, i64 %29, i64 noundef %25) #17
  %31 = getelementptr inbounds nuw %"class.absl::time_internal::cctz::detail::civil_time", ptr %0, i32 0, i32 0
  %32 = getelementptr inbounds nuw { i64, i64 }, ptr %31, i32 0, i32 0
  %33 = extractvalue { i64, i64 } %30, 0
  store i64 %33, ptr %32, align 8
  %34 = getelementptr inbounds nuw { i64, i64 }, ptr %31, i32 0, i32 1
  %35 = extractvalue { i64, i64 } %30, 1
  store i64 %35, ptr %34, align 8
  %36 = getelementptr inbounds nuw %"struct.absl::time_internal::cctz::time_zone::absolute_lookup", ptr %0, i32 0, i32 1
  %37 = load ptr, ptr %7, align 8, !tbaa !17
  %38 = getelementptr inbounds nuw %"struct.absl::time_internal::cctz::TransitionType", ptr %37, i32 0, i32 0
  %39 = load i32, ptr %38, align 8, !tbaa !24
  store i32 %39, ptr %36, align 8, !tbaa !87
  %40 = getelementptr inbounds nuw %"struct.absl::time_internal::cctz::time_zone::absolute_lookup", ptr %0, i32 0, i32 2
  %41 = load ptr, ptr %7, align 8, !tbaa !17
  %42 = getelementptr inbounds nuw %"struct.absl::time_internal::cctz::TransitionType", ptr %41, i32 0, i32 4
  %43 = load i8, ptr %42, align 8, !tbaa !25, !range !26, !noundef !27
  %44 = trunc i8 %43 to i1
  %45 = zext i1 %44 to i8
  store i8 %45, ptr %40, align 4, !tbaa !89
  %46 = getelementptr inbounds nuw %"struct.absl::time_internal::cctz::time_zone::absolute_lookup", ptr %0, i32 0, i32 3
  %47 = getelementptr inbounds nuw %"class.absl::time_internal::cctz::TimeZoneInfo", ptr %10, i32 0, i32 4
  %48 = load ptr, ptr %7, align 8, !tbaa !17
  %49 = getelementptr inbounds nuw %"struct.absl::time_internal::cctz::TransitionType", ptr %48, i32 0, i32 5
  %50 = load i8, ptr %49, align 1, !tbaa !19
  %51 = zext i8 %50 to i64
  %52 = call noundef nonnull align 1 dereferenceable(1) ptr @_ZNKSt7__cxx1112basic_stringIcSt11char_traitsIcESaIcEEixEm(ptr noundef nonnull align 8 dereferenceable(32) %47, i64 noundef %51) #17
  store ptr %52, ptr %46, align 8, !tbaa !90
  ret void
}