; Function Attrs: mustprogress nounwind uwtable
define dso_local void @_ZNK4absl13time_internal4cctz12TimeZoneInfo9LocalTimeElRKNS1_14TransitionTypeE(ptr dead_on_unwind noalias writable writeonly sret(%"struct.absl::time_internal::cctz::time_zone::absolute_lookup") align 8 captures(none) initializes((0, 21), (24, 32)) %0, ptr noundef nonnull readonly align 8 captures(none) dereferenceable(192) %1, i64 noundef %2, ptr noundef nonnull readonly align 8 captures(none) dereferenceable(42) %3) local_unnamed_addr #4 align 2 personality ptr @__gxx_personality_v0 {
  %5 = sdiv i64 %2, 60
  %6 = srem i64 %2, 60
  %7 = tail call { i64, i64 } @_ZN4absl13time_internal4cctz6detail4impl5n_secEllllll(i64 noundef 1970, i64 noundef 1, i64 noundef 1, i64 noundef 0, i64 noundef %5, i64 noundef %6) #25
  %.fca.1.extract.i.i = extractvalue { i64, i64 } %7, 1
  %8 = extractvalue { i64, i64 } %7, 0
  %9 = load i32, ptr %3, align 8, !tbaa !23
  %sext.i.i5 = shl i64 %.fca.1.extract.i.i, 56
  %10 = ashr exact i64 %sext.i.i5, 56
  %11 = shl i64 %.fca.1.extract.i.i, 48
  %12 = ashr i64 %11, 56
  %13 = shl i64 %.fca.1.extract.i.i, 40
  %14 = ashr i64 %13, 56
  %15 = shl i64 %.fca.1.extract.i.i, 32
  %16 = ashr i64 %15, 56
  %17 = sdiv i32 %9, 60
  %.sext = sext i32 %17 to i64
  %18 = add nsw i64 %16, %.sext
  %.sroa.2.8.insert.ext.i = shl i64 %.fca.1.extract.i.i, 24
  %19 = ashr i64 %.sroa.2.8.insert.ext.i, 56
  %20 = srem i32 %9, 60
  %.sext10 = sext i32 %20 to i64
  %21 = add nsw i64 %19, %.sext10
  %22 = tail call { i64, i64 } @_ZN4absl13time_internal4cctz6detail4impl5n_secEllllll(i64 noundef %8, i64 noundef %10, i64 noundef %12, i64 noundef %14, i64 noundef %18, i64 noundef %21) #25
  %.fca.1.extract.i.i6 = extractvalue { i64, i64 } %22, 1
  %.sroa.2.8.insert.ext.i7 = and i64 %.fca.1.extract.i.i6, 1099511627775
  %23 = extractvalue { i64, i64 } %22, 0
  store i64 %23, ptr %0, align 8
  %24 = getelementptr inbounds nuw i8, ptr %0, i64 8
  store i64 %.sroa.2.8.insert.ext.i7, ptr %24, align 8
  %25 = getelementptr inbounds nuw i8, ptr %0, i64 16
  %26 = load i32, ptr %3, align 8, !tbaa !23
  store i32 %26, ptr %25, align 8, !tbaa !90
  %27 = getelementptr inbounds nuw i8, ptr %0, i64 20
  %28 = getelementptr inbounds nuw i8, ptr %3, i64 40
  %29 = load i8, ptr %28, align 8, !tbaa !24, !range !25, !noundef !26
  store i8 %29, ptr %27, align 4, !tbaa !92
  %30 = getelementptr inbounds nuw i8, ptr %0, i64 24
  %31 = getelementptr inbounds nuw i8, ptr %1, i64 64
  %32 = getelementptr inbounds nuw i8, ptr %3, i64 41
  %33 = load i8, ptr %32, align 1, !tbaa !16
  %34 = zext i8 %33 to i64
  %35 = load ptr, ptr %31, align 8, !tbaa !22
  %36 = getelementptr inbounds nuw i8, ptr %35, i64 %34
  store ptr %36, ptr %30, align 8, !tbaa !93
  ret void
}